target datalayout = "e-m:e-p270:32:32-p271:32:32-p272:64:64-i64:64-i128:128-f80:128-n8:16:32:64-S128"
target triple = "x86_64-pc-linux-gnu"

%struct.resource_allocation_response_msg = type { ptr, i32, ptr, i32, i32, i32, ptr, ptr, i32, ptr, i32, i32, ptr, ptr, i32, ptr, i16, i16, i16, i16, i32, ptr, i64, ptr, ptr, ptr, ptr, i32, ptr, ptr }

@.str = private unnamed_addr constant [22 x i8] c"slurm_protocol_defs.c\00", align 1
@__func__.slurm_copy_resource_allocation_response_msg = private unnamed_addr constant [44 x i8] c"slurm_copy_resource_allocation_response_msg\00", align 1

; Function Attrs: nounwind uwtable
define dso_local ptr @slurm_copy_resource_allocation_response_msg(ptr noundef %0) #0 {
  %2 = alloca ptr, align 8
  %3 = alloca ptr, align 8
  %4 = alloca ptr, align 8
  %5 = alloca i32, align 4
  store ptr %0, ptr %3, align 8
  call void @llvm.lifetime.start.p0(i64 8, ptr %4) #11
  %6 = load ptr, ptr %3, align 8
  %7 = icmp ne ptr %6, null
  br i1 %7, label %9, label %8

8:                                                ; preds = %1
  store ptr null, ptr %2, align 8
  store i32 1, ptr %5, align 4
  br label %134

9:                                                ; preds = %1
  %10 = call ptr @slurm_xcalloc(i64 noundef 1, i64 noundef 200, i1 noundef zeroext true, i1 noundef zeroext false, ptr noundef @.str, i32 noundef 1262, ptr noundef @__func__.slurm_copy_resource_allocation_response_msg)
  store ptr %10, ptr %4, align 8
  %11 = load ptr, ptr %4, align 8
  %12 = load ptr, ptr %3, align 8
  call void @llvm.memcpy.p0.p0.i64(ptr align 8 %11, ptr align 8 %12, i64 200, i1 false)
  %13 = load ptr, ptr %3, align 8
  %14 = getelementptr inbounds nuw %struct.resource_allocation_response_msg, ptr %13, i32 0, i32 0
  %15 = load ptr, ptr %14, align 8
  %16 = call ptr @xstrdup(ptr noundef %15)
  %17 = load ptr, ptr %4, align 8
  %18 = getelementptr inbounds nuw %struct.resource_allocation_response_msg, ptr %17, i32 0, i32 0
  store ptr %16, ptr %18, align 8
  %19 = load ptr, ptr %3, align 8
  %20 = getelementptr inbounds nuw %struct.resource_allocation_response_msg, ptr %19, i32 0, i32 2
  %21 = load ptr, ptr %20, align 8
  %22 = call ptr @xstrdup(ptr noundef %21)
  %23 = load ptr, ptr %4, align 8
  %24 = getelementptr inbounds nuw %struct.resource_allocation_response_msg, ptr %23, i32 0, i32 2
  store ptr %22, ptr %24, align 8
  %25 = load ptr, ptr %3, align 8
  %26 = getelementptr inbounds nuw %struct.resource_allocation_response_msg, ptr %25, i32 0, i32 6
  %27 = load ptr, ptr %26, align 8
  %28 = icmp ne ptr %27, null
  br i1 %28, label %29, label %48

29:                                               ; preds = %9
  %30 = load ptr, ptr %4, align 8
  %31 = getelementptr inbounds nuw %struct.resource_allocation_response_msg, ptr %30, i32 0, i32 20
  %32 = load i32, ptr %31, align 8
  %33 = zext i32 %32 to i64
  %34 = call ptr @slurm_xcalloc(i64 noundef %33, i64 noundef 2, i1 noundef zeroext true, i1 noundef zeroext false, ptr noundef @.str, i32 noundef 1270, ptr noundef @__func__.slurm_copy_resource_allocation_response_msg)
  %35 = load ptr, ptr %4, align 8
  %36 = getelementptr inbounds nuw %struct.resource_allocation_response_msg, ptr %35, i32 0, i32 6
  store ptr %34, ptr %36, align 8
  %37 = load ptr, ptr %4, align 8
  %38 = getelementptr inbounds nuw %struct.resource_allocation_response_msg, ptr %37, i32 0, i32 6
  %39 = load ptr, ptr %38, align 8
  %40 = load ptr, ptr %3, align 8
  %41 = getelementptr inbounds nuw %struct.resource_allocation_response_msg, ptr %40, i32 0, i32 6
  %42 = load ptr, ptr %41, align 8
  %43 = load ptr, ptr %4, align 8
  %44 = getelementptr inbounds nuw %struct.resource_allocation_response_msg, ptr %43, i32 0, i32 20
  %45 = load i32, ptr %44, align 8
  %46 = zext i32 %45 to i64
  %47 = mul i64 %46, 2
  call void @llvm.memcpy.p0.p0.i64(ptr align 2 %39, ptr align 2 %42, i64 %47, i1 false)
  br label %48

48:                                               ; preds = %29, %9
  %49 = load ptr, ptr %3, align 8
  %50 = getelementptr inbounds nuw %struct.resource_allocation_response_msg, ptr %49, i32 0, i32 7
  %51 = load ptr, ptr %50, align 8
  %52 = icmp ne ptr %51, null
  br i1 %52, label %53, label %72

53:                                               ; preds = %48
  %54 = load ptr, ptr %4, align 8
  %55 = getelementptr inbounds nuw %struct.resource_allocation_response_msg, ptr %54, i32 0, i32 20
  %56 = load i32, ptr %55, align 8
  %57 = zext i32 %56 to i64
  %58 = call ptr @slurm_xcalloc(i64 noundef %57, i64 noundef 4, i1 noundef zeroext true, i1 noundef zeroext false, ptr noundef @.str, i32 noundef 1277, ptr noundef @__func__.slurm_copy_resource_allocation_response_msg)
  %59 = load ptr, ptr %4, align 8
  %60 = getelementptr inbounds nuw %struct.resource_allocation_response_msg, ptr %59, i32 0, i32 7
  store ptr %58, ptr %60, align 8
  %61 = load ptr, ptr %4, align 8
  %62 = getelementptr inbounds nuw %struct.resource_allocation_response_msg, ptr %61, i32 0, i32 7
  %63 = load ptr, ptr %62, align 8
  %64 = load ptr, ptr %3, align 8
  %65 = getelementptr inbounds nuw %struct.resource_allocation_response_msg, ptr %64, i32 0, i32 7
  %66 = load ptr, ptr %65, align 8
  %67 = load ptr, ptr %4, align 8
  %68 = getelementptr inbounds nuw %struct.resource_allocation_response_msg, ptr %67, i32 0, i32 20
  %69 = load i32, ptr %68, align 8
  %70 = zext i32 %69 to i64
  %71 = mul i64 %70, 4
  call void @llvm.memcpy.p0.p0.i64(ptr align 4 %63, ptr align 4 %66, i64 %71, i1 false)
  br label %72

72:                                               ; preds = %53, %48
  %73 = load ptr, ptr %3, align 8
  %74 = getelementptr inbounds nuw %struct.resource_allocation_response_msg, ptr %73, i32 0, i32 9
  %75 = load ptr, ptr %74, align 8
  %76 = call ptr @env_array_copy(ptr noundef %75)
  %77 = load ptr, ptr %4, align 8
  %78 = getelementptr inbounds nuw %struct.resource_allocation_response_msg, ptr %77, i32 0, i32 9
  store ptr %76, ptr %78, align 8
  %79 = load ptr, ptr %3, align 8
  %80 = getelementptr inbounds nuw %struct.resource_allocation_response_msg, ptr %79, i32 0, i32 11
  %81 = load i32, ptr %80, align 4
  %82 = load ptr, ptr %4, align 8
  %83 = getelementptr inbounds nuw %struct.resource_allocation_response_msg, ptr %82, i32 0, i32 11
  store i32 %81, ptr %83, align 4
  %84 = load ptr, ptr %3, align 8
  %85 = getelementptr inbounds nuw %struct.resource_allocation_response_msg, ptr %84, i32 0, i32 12
  %86 = load ptr, ptr %85, align 8
  %87 = call ptr @xstrdup(ptr noundef %86)
  %88 = load ptr, ptr %4, align 8
  %89 = getelementptr inbounds nuw %struct.resource_allocation_response_msg, ptr %88, i32 0, i32 12
  store ptr %87, ptr %89, align 8
  %90 = load ptr, ptr %3, align 8
  %91 = getelementptr inbounds nuw %struct.resource_allocation_response_msg, ptr %90, i32 0, i32 13
  %92 = load ptr, ptr %91, align 8
  %93 = call ptr @xstrdup(ptr noundef %92)
  %94 = load ptr, ptr %4, align 8
  %95 = getelementptr inbounds nuw %struct.resource_allocation_response_msg, ptr %94, i32 0, i32 13
  store ptr %93, ptr %95, align 8
  %96 = load ptr, ptr %3, align 8
  %97 = getelementptr inbounds nuw %struct.resource_allocation_response_msg, ptr %96, i32 0, i32 15
  %98 = load ptr, ptr %97, align 8
  %99 = call ptr @xstrdup(ptr noundef %98)
  %100 = load ptr, ptr %4, align 8
  %101 = getelementptr inbounds nuw %struct.resource_allocation_response_msg, ptr %100, i32 0, i32 15
  store ptr %99, ptr %101, align 8
  %102 = load ptr, ptr %3, align 8
  %103 = getelementptr inbounds nuw %struct.resource_allocation_response_msg, ptr %102, i32 0, i32 21
  %104 = load ptr, ptr %103, align 8
  %105 = call ptr @xstrdup(ptr noundef %104)
  %106 = load ptr, ptr %4, align 8
  %107 = getelementptr inbounds nuw %struct.resource_allocation_response_msg, ptr %106, i32 0, i32 21
  store ptr %105, ptr %107, align 8
  %108 = load ptr, ptr %3, align 8
  %109 = getelementptr inbounds nuw %struct.resource_allocation_response_msg, ptr %108, i32 0, i32 23
  %110 = load ptr, ptr %109, align 8
  %111 = call ptr @xstrdup(ptr noundef %110)
  %112 = load ptr, ptr %4, align 8
  %113 = getelementptr inbounds nuw %struct.resource_allocation_response_msg, ptr %112, i32 0, i32 23
  store ptr %111, ptr %113, align 8
  %114 = load ptr, ptr %3, align 8
  %115 = getelementptr inbounds nuw %struct.resource_allocation_response_msg, ptr %114, i32 0, i32 24
  %116 = load ptr, ptr %115, align 8
  %117 = call ptr @xstrdup(ptr noundef %116)
  %118 = load ptr, ptr %4, align 8
  %119 = getelementptr inbounds nuw %struct.resource_allocation_response_msg, ptr %118, i32 0, i32 24
  store ptr %117, ptr %119, align 8
  %120 = load ptr, ptr %3, align 8
  %121 = getelementptr inbounds nuw %struct.resource_allocation_response_msg, ptr %120, i32 0, i32 27
  %122 = load i32, ptr %121, align 8
  %123 = load ptr, ptr %4, align 8
  %124 = getelementptr inbounds nuw %struct.resource_allocation_response_msg, ptr %123, i32 0, i32 27
  store i32 %122, ptr %124, align 8
  %125 = load ptr, ptr %3, align 8
  %126 = getelementptr inbounds nuw %struct.resource_allocation_response_msg, ptr %125, i32 0, i32 28
  %127 = load ptr, ptr %126, align 8
  %128 = call ptr @xstrdup(ptr noundef %127)
  %129 = load ptr, ptr %4, align 8
  %130 = getelementptr inbounds nuw %struct.resource_allocation_response_msg, ptr %129, i32 0, i32 28
  store ptr %128, ptr %130, align 8
  %131 = load ptr, ptr %4, align 8
  %132 = getelementptr inbounds nuw %struct.resource_allocation_response_msg, ptr %131, i32 0, i32 29
  store ptr null, ptr %132, align 8
  %133 = load ptr, ptr %4, align 8
  store ptr %133, ptr %2, align 8
  store i32 1, ptr %5, align 4
  br label %134

134:                                              ; preds = %72, %8
  call void @llvm.lifetime.end.p0(i64 8, ptr %4) #11
  %135 = load ptr, ptr %2, align 8
  ret ptr %135
}