; Function Attrs: nounwind uwtable
define dso_local noundef ptr @slurm_copy_resource_allocation_response_msg(ptr noundef readonly captures(address_is_null) %0) local_unnamed_addr #1 {
  %.not = icmp eq ptr %0, null
  br i1 %.not, label %75, label %2

2:                                                ; preds = %1
  %3 = tail call ptr @slurm_xcalloc(i64 noundef 1, i64 noundef 200, i1 noundef zeroext true, i1 noundef zeroext false, ptr noundef nonnull @.str, i32 noundef 1262, ptr noundef nonnull @__func__.slurm_copy_resource_allocation_response_msg) #24
  tail call void @llvm.memcpy.p0.p0.i64(ptr noundef nonnull align 8 dereferenceable(200) %3, ptr noundef nonnull align 8 dereferenceable(200) %0, i64 200, i1 false)
  %4 = load ptr, ptr %0, align 8
  %5 = tail call ptr @xstrdup(ptr noundef %4) #24
  store ptr %5, ptr %3, align 8
  %6 = getelementptr inbounds nuw i8, ptr %0, i64 16
  %7 = load ptr, ptr %6, align 8
  %8 = tail call ptr @xstrdup(ptr noundef %7) #24
  %9 = getelementptr inbounds nuw i8, ptr %3, i64 16
  store ptr %8, ptr %9, align 8
  %10 = getelementptr inbounds nuw i8, ptr %0, i64 40
  %11 = load ptr, ptr %10, align 8
  %.not43 = icmp eq ptr %11, null
  br i1 %.not43, label %22, label %12

12:                                               ; preds = %2
  %13 = getelementptr inbounds nuw i8, ptr %3, i64 120
  %14 = load i32, ptr %13, align 8
  %15 = zext i32 %14 to i64
  %16 = tail call ptr @slurm_xcalloc(i64 noundef %15, i64 noundef 2, i1 noundef zeroext true, i1 noundef zeroext false, ptr noundef nonnull @.str, i32 noundef 1270, ptr noundef nonnull @__func__.slurm_copy_resource_allocation_response_msg) #24
  %17 = getelementptr inbounds nuw i8, ptr %3, i64 40
  store ptr %16, ptr %17, align 8
  %18 = load ptr, ptr %10, align 8
  %19 = load i32, ptr %13, align 8
  %20 = zext i32 %19 to i64
  %21 = shl nuw nsw i64 %20, 1
  tail call void @llvm.memcpy.p0.p0.i64(ptr align 2 %16, ptr align 2 %18, i64 %21, i1 false)
  br label %22

22:                                               ; preds = %12, %2
  %23 = getelementptr inbounds nuw i8, ptr %0, i64 48
  %24 = load ptr, ptr %23, align 8
  %.not44 = icmp eq ptr %24, null
  br i1 %.not44, label %35, label %25

25:                                               ; preds = %22
  %26 = getelementptr inbounds nuw i8, ptr %3, i64 120
  %27 = load i32, ptr %26, align 8
  %28 = zext i32 %27 to i64
  %29 = tail call ptr @slurm_xcalloc(i64 noundef %28, i64 noundef 4, i1 noundef zeroext true, i1 noundef zeroext false, ptr noundef nonnull @.str, i32 noundef 1277, ptr noundef nonnull @__func__.slurm_copy_resource_allocation_response_msg) #24
  %30 = getelementptr inbounds nuw i8, ptr %3, i64 48
  store ptr %29, ptr %30, align 8
  %31 = load ptr, ptr %23, align 8
  %32 = load i32, ptr %26, align 8
  %33 = zext i32 %32 to i64
  %34 = shl nuw nsw i64 %33, 2
  tail call void @llvm.memcpy.p0.p0.i64(ptr align 4 %29, ptr align 4 %31, i64 %34, i1 false)
  br label %35

35:                                               ; preds = %25, %22
  %36 = getelementptr inbounds nuw i8, ptr %0, i64 64
  %37 = load ptr, ptr %36, align 8
  %38 = tail call ptr @env_array_copy(ptr noundef %37) #24
  %39 = getelementptr inbounds nuw i8, ptr %3, i64 64
  store ptr %38, ptr %39, align 8
  %40 = getelementptr inbounds nuw i8, ptr %0, i64 76
  %41 = load i32, ptr %40, align 4
  %42 = getelementptr inbounds nuw i8, ptr %3, i64 76
  store i32 %41, ptr %42, align 4
  %43 = getelementptr inbounds nuw i8, ptr %0, i64 80
  %44 = load ptr, ptr %43, align 8
  %45 = tail call ptr @xstrdup(ptr noundef %44) #24
  %46 = getelementptr inbounds nuw i8, ptr %3, i64 80
  store ptr %45, ptr %46, align 8
  %47 = getelementptr inbounds nuw i8, ptr %0, i64 88
  %48 = load ptr, ptr %47, align 8
  %49 = tail call ptr @xstrdup(ptr noundef %48) #24
  %50 = getelementptr inbounds nuw i8, ptr %3, i64 88
  store ptr %49, ptr %50, align 8
  %51 = getelementptr inbounds nuw i8, ptr %0, i64 104
  %52 = load ptr, ptr %51, align 8
  %53 = tail call ptr @xstrdup(ptr noundef %52) #24
  %54 = getelementptr inbounds nuw i8, ptr %3, i64 104
  store ptr %53, ptr %54, align 8
  %55 = getelementptr inbounds nuw i8, ptr %0, i64 128
  %56 = load ptr, ptr %55, align 8
  %57 = tail call ptr @xstrdup(ptr noundef %56) #24
  %58 = getelementptr inbounds nuw i8, ptr %3, i64 128
  store ptr %57, ptr %58, align 8
  %59 = getelementptr inbounds nuw i8, ptr %0, i64 144
  %60 = load ptr, ptr %59, align 8
  %61 = tail call ptr @xstrdup(ptr noundef %60) #24
  %62 = getelementptr inbounds nuw i8, ptr %3, i64 144
  store ptr %61, ptr %62, align 8
  %63 = getelementptr inbounds nuw i8, ptr %0, i64 152
  %64 = load ptr, ptr %63, align 8
  %65 = tail call ptr @xstrdup(ptr noundef %64) #24
  %66 = getelementptr inbounds nuw i8, ptr %3, i64 152
  store ptr %65, ptr %66, align 8
  %67 = getelementptr inbounds nuw i8, ptr %0, i64 176
  %68 = load i32, ptr %67, align 8
  %69 = getelementptr inbounds nuw i8, ptr %3, i64 176
  store i32 %68, ptr %69, align 8
  %70 = getelementptr inbounds nuw i8, ptr %0, i64 184
  %71 = load ptr, ptr %70, align 8
  %72 = tail call ptr @xstrdup(ptr noundef %71) #24
  %73 = getelementptr inbounds nuw i8, ptr %3, i64 184
  store ptr %72, ptr %73, align 8
  %74 = getelementptr inbounds nuw i8, ptr %3, i64 192
  store ptr null, ptr %74, align 8
  br label %75

75:                                               ; preds = %1, %35
  %.0 = phi ptr [ %3, %35 ], [ null, %1 ]
  ret ptr %.0
}